; Function Attrs: null_pointer_is_valid sspstrong uwtable
define internal i32 @dissect_fcoib(ptr noundef %0, ptr noundef %1, ptr noundef %2, ptr readnone captures(none) %3) #0 {
  %5 = alloca %struct._fc_data, align 4
  call void @llvm.lifetime.start.p0(i64 8, ptr nonnull %5) #3
  %6 = tail call i32 @tvb_reported_length_remaining(ptr noundef %0, i32 noundef 0)
  %7 = add i32 %6, -24
  %8 = add i32 %6, -8
  %9 = add i32 %6, -4
  %10 = icmp slt i32 %7, 1
  br i1 %10, label %89, label %11

11:                                               ; preds = %4
  %12 = getelementptr inbounds nuw i8, ptr %1, i64 8
  %13 = load ptr, ptr %12, align 8
  tail call void @col_set_str(ptr noundef %13, i32 noundef 35, ptr noundef nonnull @.str.15)
  %14 = tail call ptr @tvb_new_subset_length(ptr noundef %0, i32 noundef 16, i32 noundef %7)
  %15 = tail call zeroext i8 @tvb_get_uint8(ptr noundef %0, i32 noundef 2)
  %16 = lshr i8 %15, 4
  %17 = zext nneg i8 %16 to i32
  %.not = icmp ult i8 %15, 16
  br i1 %.not, label %22, label %18

18:                                               ; preds = %11
  %19 = getelementptr inbounds nuw i8, ptr %1, i64 408
  %20 = load ptr, ptr %19, align 8
  %21 = tail call noalias ptr (ptr, ptr, ...) @wmem_strdup_printf(ptr noundef %20, ptr noundef nonnull @.str.52, ptr noundef nonnull @.str.53, i32 noundef %17)
  br label %22

22:                                               ; preds = %18, %11
  %.095 = phi ptr [ %21, %18 ], [ @.str.52, %11 ]
  %23 = tail call zeroext i1 @tvb_bytes_exist(ptr noundef %0, i32 noundef 0, i32 noundef 1)
  br i1 %23, label %24, label %28

24:                                               ; preds = %22
  %25 = tail call zeroext i8 @tvb_get_uint8(ptr noundef %0, i32 noundef 0)
  %26 = lshr i8 %25, 6
  %27 = zext nneg i8 %26 to i32
  br label %28

28:                                               ; preds = %24, %22
  %.098 = phi i32 [ %27, %24 ], [ 0, %22 ]
  %29 = tail call zeroext i1 @tvb_bytes_exist(ptr noundef %0, i32 noundef %9, i32 noundef 1)
  br i1 %29, label %30, label %34

30:                                               ; preds = %28
  %31 = tail call zeroext i8 @tvb_get_uint8(ptr noundef %0, i32 noundef %9)
  %32 = zext i8 %31 to i32
  %33 = tail call ptr @val_to_str(i32 noundef %32, ptr noundef nonnull @fcoib_eof_vals, ptr noundef nonnull @.str.55)
  br label %34

34:                                               ; preds = %30, %28
  %.0101 = phi ptr [ %33, %30 ], [ @.str.54, %28 ]
  %.097 = phi i32 [ %32, %30 ], [ 0, %28 ]
  %35 = tail call zeroext i1 @tvb_bytes_exist(ptr noundef %0, i32 noundef 15, i32 noundef 1)
  br i1 %35, label %36, label %40

36:                                               ; preds = %34
  %37 = tail call zeroext i8 @tvb_get_uint8(ptr noundef %0, i32 noundef 15)
  %38 = zext i8 %37 to i32
  %39 = tail call ptr @val_to_str(i32 noundef %38, ptr noundef nonnull @fcoib_sof_vals, ptr noundef nonnull @.str.55)
  br label %40

40:                                               ; preds = %36, %34
  %.0100 = phi ptr [ %39, %36 ], [ @.str.54, %34 ]
  %.096 = phi i32 [ %38, %36 ], [ 0, %34 ]
  %41 = tail call zeroext i1 @tvb_bytes_exist(ptr noundef %0, i32 noundef %8, i32 noundef 4)
  br i1 %41, label %42, label %45

42:                                               ; preds = %40
  %43 = tail call i32 @tvb_get_ntohl(ptr noundef %0, i32 noundef %8)
  %44 = tail call i32 @crc32_802_tvb(ptr noundef %14, i32 noundef %7)
  %.not108 = icmp eq i32 %43, %44
  %spec.select = select i1 %.not108, ptr @.str.52, ptr @.str.56
  br label %45

45:                                               ; preds = %42, %40
  %.099 = phi ptr [ @.str.52, %40 ], [ %spec.select, %42 ]
  %.0 = phi i32 [ 0, %40 ], [ %44, %42 ]
  %46 = and i32 %6, 3
  %47 = icmp ne i32 %46, 0
  %48 = icmp samesign ult i32 %7, 24
  %or.cond = or i1 %47, %48
  %spec.store.select = select i1 %or.cond, ptr @.str.57, ptr @.str.52
  %49 = load i32, ptr @proto_fcoib, align 4
  %50 = tail call ptr (ptr, i32, ptr, i32, i32, ptr, ...) @proto_tree_add_protocol_format(ptr noundef %2, i32 noundef %49, ptr noundef %0, i32 noundef 0, i32 noundef 16, ptr noundef nonnull @.str.58, ptr noundef %.095, ptr noundef %.0100, ptr noundef %.0101, i32 noundef %7, ptr noundef nonnull %.099, ptr noundef nonnull %spec.store.select)
  %51 = load i32, ptr @ett_fcoib, align 4
  %52 = tail call ptr @proto_item_add_subtree(ptr noundef %50, i32 noundef %51)
  %53 = load i32, ptr @hf_fcoib_sig, align 4
  %54 = tail call ptr @proto_tree_add_uint(ptr noundef %52, i32 noundef %53, ptr noundef %0, i32 noundef 0, i32 noundef 1, i32 noundef %.098)
  %55 = load i32, ptr @hf_fcoib_ver, align 4
  %56 = tail call ptr @proto_tree_add_uint(ptr noundef %52, i32 noundef %55, ptr noundef %0, i32 noundef 2, i32 noundef 1, i32 noundef %17)
  %57 = load i32, ptr @hf_fcoib_sof, align 4
  %58 = tail call ptr @proto_tree_add_uint(ptr noundef %52, i32 noundef %57, ptr noundef %0, i32 noundef 15, i32 noundef 1, i32 noundef %.096)
  %59 = load i32, ptr @hf_fcoib_crc, align 4
  %60 = load i32, ptr @hf_fcoib_crc_status, align 4
  br i1 %41, label %61, label %64

61:                                               ; preds = %45
  %62 = tail call ptr @proto_tree_add_checksum(ptr noundef %52, ptr noundef %0, i32 noundef %8, i32 noundef %59, i32 noundef %60, ptr noundef nonnull @ei_fcoib_crc, ptr noundef %1, i32 noundef %.0, i32 noundef 0, i32 noundef 1)
  %63 = tail call i32 @tvb_captured_length_remaining(ptr noundef %0, i32 noundef %8)
  tail call void @proto_tree_set_appendix(ptr noundef %52, ptr noundef %0, i32 noundef %8, i32 noundef %63)
  br label %66

64:                                               ; preds = %45
  %65 = tail call ptr @proto_tree_add_checksum(ptr noundef %52, ptr noundef %0, i32 noundef %8, i32 noundef %59, i32 noundef %60, ptr noundef nonnull @ei_fcoib_crc, ptr noundef %1, i32 noundef 0, i32 noundef 0, i32 noundef 16)
  br label %66

66:                                               ; preds = %64, %61
  %67 = tail call zeroext i1 @tvb_bytes_exist(ptr noundef %0, i32 noundef %9, i32 noundef 1)
  br i1 %67, label %68, label %71

68:                                               ; preds = %66
  %69 = load i32, ptr @hf_fcoib_eof, align 4
  %70 = tail call ptr @proto_tree_add_item(ptr noundef %52, i32 noundef %69, ptr noundef %0, i32 noundef %9, i32 noundef 1, i32 noundef 0)
  br label %71

71:                                               ; preds = %68, %66
  %72 = getelementptr inbounds nuw i8, ptr %5, i64 4
  store i8 0, ptr %72, align 4
  %trunc = trunc nuw i32 %.096 to i8
  %switch.tableidx = add i8 %trunc, -40
  %73 = icmp ult i8 %switch.tableidx, 7
  br i1 %73, label %switch.hole_check, label %75

switch.hole_check:                                ; preds = %71
  %switch.shifted = lshr i8 99, %switch.tableidx
  %switch.lobit = trunc i8 %switch.shifted to i1
  br i1 %switch.lobit, label %switch.lookup, label %75

switch.lookup:                                    ; preds = %switch.hole_check
  %74 = shl nuw nsw i8 %switch.tableidx, 3
  %switch.shiftamt = zext nneg i8 %74 to i56
  %switch.downshift = lshr i56 282574488338690, %switch.shiftamt
  %switch.masked = trunc i56 %switch.downshift to i8
  store i8 %switch.masked, ptr %72, align 4
  br label %75

75:                                               ; preds = %switch.hole_check, %71, %switch.lookup
  %76 = phi i8 [ 0, %71 ], [ %switch.masked, %switch.lookup ], [ 0, %switch.hole_check ]
  %.not109 = icmp eq i32 %.097, 65
  br i1 %.not109, label %81, label %77

77:                                               ; preds = %75
  %78 = or disjoint i8 %76, -128
  store i8 %78, ptr %72, align 4
  %.not110 = icmp eq i32 %.097, 66
  br i1 %.not110, label %81, label %79

79:                                               ; preds = %77
  %80 = or disjoint i8 %76, -64
  store i8 %80, ptr %72, align 4
  br label %81

81:                                               ; preds = %77, %79, %75
  store i32 0, ptr %5, align 4
  %82 = load ptr, ptr @fc_handle, align 8
  %.not111 = icmp eq ptr %82, null
  br i1 %.not111, label %85, label %83

83:                                               ; preds = %81
  %84 = call i32 @call_dissector_with_data(ptr noundef nonnull %82, ptr noundef %14, ptr noundef %1, ptr noundef %2, ptr noundef nonnull %5)
  br label %87

85:                                               ; preds = %81
  %86 = tail call i32 @call_data_dissector(ptr noundef %14, ptr noundef %1, ptr noundef %2)
  br label %87

87:                                               ; preds = %85, %83
  %88 = call i32 @tvb_captured_length(ptr noundef %0)
  br label %89

89:                                               ; preds = %4, %87
  %.094 = phi i32 [ %88, %87 ], [ 0, %4 ]
  call void @llvm.lifetime.end.p0(i64 8, ptr nonnull %5) #3
  ret i32 %.094
}